; ModuleID = '31/768.c'
source_filename = "31/768.c"
target datalayout = "e-m:e-p270:32:32-p271:32:32-p272:64:64-i64:64-f80:128-n8:16:32:64-S128"
target triple = "x86_64-pc-linux-gnu"

%struct.student = type { [10 x i8], [20 x i8], i8, i32, float, [19 x i8], %struct.student* }

@.str = private unnamed_addr constant [18 x i8] c"%s %s %c %d %f %s\00", align 1
@.str.1 = private unnamed_addr constant [3 x i8] c"%s\00", align 1
@.str.2 = private unnamed_addr constant [4 x i8] c"end\00", align 1
@.str.3 = private unnamed_addr constant [15 x i8] c"%s %c %d %f %s\00", align 1
@.str.4 = private unnamed_addr constant [19 x i8] c"%s %s %c %d %g %s\0A\00", align 1

; Function Attrs: noinline nounwind uwtable
define dso_local i32 @main() #0 {
  %1 = alloca i32, align 4
  %2 = alloca %struct.student*, align 8
  %3 = alloca %struct.student*, align 8
  store i32 0, i32* %1, align 4
  %4 = call noalias i8* @malloc(i64 100) #4
  %5 = bitcast i8* %4 to %struct.student*
  store %struct.student* %5, %struct.student** %2, align 8
  %6 = load %struct.student*, %struct.student** %2, align 8
  %7 = getelementptr inbounds %struct.student, %struct.student* %6, i32 0, i32 0
  %8 = getelementptr inbounds [10 x i8], [10 x i8]* %7, i64 0, i64 0
  %9 = load %struct.student*, %struct.student** %2, align 8
  %10 = getelementptr inbounds %struct.student, %struct.student* %9, i32 0, i32 1
  %11 = getelementptr inbounds [20 x i8], [20 x i8]* %10, i64 0, i64 0
  %12 = load %struct.student*, %struct.student** %2, align 8
  %13 = getelementptr inbounds %struct.student, %struct.student* %12, i32 0, i32 2
  %14 = load %struct.student*, %struct.student** %2, align 8
  %15 = getelementptr inbounds %struct.student, %struct.student* %14, i32 0, i32 3
  %16 = load %struct.student*, %struct.student** %2, align 8
  %17 = getelementptr inbounds %struct.student, %struct.student* %16, i32 0, i32 4
  %18 = load %struct.student*, %struct.student** %2, align 8
  %19 = getelementptr inbounds %struct.student, %struct.student* %18, i32 0, i32 5
  %20 = getelementptr inbounds [19 x i8], [19 x i8]* %19, i64 0, i64 0
  %21 = call i32 (i8*, ...) @__isoc99_scanf(i8* getelementptr inbounds ([18 x i8], [18 x i8]* @.str, i64 0, i64 0), i8* %8, i8* %11, i8* %13, i32* %15, float* %17, i8* %20)
  %22 = load %struct.student*, %struct.student** %2, align 8
  %23 = getelementptr inbounds %struct.student, %struct.student* %22, i32 0, i32 6
  store %struct.student* null, %struct.student** %23, align 8
  %24 = load %struct.student*, %struct.student** %2, align 8
  store %struct.student* %24, %struct.student** %3, align 8
  br label %25

25:                                               ; preds = %0, %38
  %26 = call noalias i8* @malloc(i64 100) #4
  %27 = bitcast i8* %26 to %struct.student*
  store %struct.student* %27, %struct.student** %2, align 8
  %28 = load %struct.student*, %struct.student** %2, align 8
  %29 = getelementptr inbounds %struct.student, %struct.student* %28, i32 0, i32 0
  %30 = getelementptr inbounds [10 x i8], [10 x i8]* %29, i64 0, i64 0
  %31 = call i32 (i8*, ...) @__isoc99_scanf(i8* getelementptr inbounds ([3 x i8], [3 x i8]* @.str.1, i64 0, i64 0), i8* %30)
  %32 = load %struct.student*, %struct.student** %2, align 8
  %33 = getelementptr inbounds %struct.student, %struct.student* %32, i32 0, i32 0
  %34 = getelementptr inbounds [10 x i8], [10 x i8]* %33, i64 0, i64 0
  %35 = call i32 @strcmp(i8* %34, i8* getelementptr inbounds ([4 x i8], [4 x i8]* @.str.2, i64 0, i64 0)) #5
  %36 = icmp eq i32 %35, 0
  br i1 %36, label %37, label %38

37:                                               ; preds = %25
  br label %56

38:                                               ; preds = %25
  %39 = load %struct.student*, %struct.student** %2, align 8
  %40 = getelementptr inbounds %struct.student, %struct.student* %39, i32 0, i32 1
  %41 = getelementptr inbounds [20 x i8], [20 x i8]* %40, i64 0, i64 0
  %42 = load %struct.student*, %struct.student** %2, align 8
  %43 = getelementptr inbounds %struct.student, %struct.student* %42, i32 0, i32 2
  %44 = load %struct.student*, %struct.student** %2, align 8
  %45 = getelementptr inbounds %struct.student, %struct.student* %44, i32 0, i32 3
  %46 = load %struct.student*, %struct.student** %2, align 8
  %47 = getelementptr inbounds %struct.student, %struct.student* %46, i32 0, i32 4
  %48 = load %struct.student*, %struct.student** %2, align 8
  %49 = getelementptr inbounds %struct.student, %struct.student* %48, i32 0, i32 5
  %50 = getelementptr inbounds [19 x i8], [19 x i8]* %49, i64 0, i64 0
  %51 = call i32 (i8*, ...) @__isoc99_scanf(i8* getelementptr inbounds ([15 x i8], [15 x i8]* @.str.3, i64 0, i64 0), i8* %41, i8* %43, i32* %45, float* %47, i8* %50)
  %52 = load %struct.student*, %struct.student** %3, align 8
  %53 = load %struct.student*, %struct.student** %2, align 8
  %54 = getelementptr inbounds %struct.student, %struct.student* %53, i32 0, i32 6
  store %struct.student* %52, %struct.student** %54, align 8
  %55 = load %struct.student*, %struct.student** %2, align 8
  store %struct.student* %55, %struct.student** %3, align 8
  br label %25

56:                                               ; preds = %37
  %57 = load %struct.student*, %struct.student** %3, align 8
  store %struct.student* %57, %struct.student** %2, align 8
  br label %58

58:                                               ; preds = %61, %56
  %59 = load %struct.student*, %struct.student** %2, align 8
  %60 = icmp ne %struct.student* %59, null
  br i1 %60, label %61, label %86

61:                                               ; preds = %58
  %62 = load %struct.student*, %struct.student** %2, align 8
  %63 = getelementptr inbounds %struct.student, %struct.student* %62, i32 0, i32 0
  %64 = getelementptr inbounds [10 x i8], [10 x i8]* %63, i64 0, i64 0
  %65 = load %struct.student*, %struct.student** %2, align 8
  %66 = getelementptr inbounds %struct.student, %struct.student* %65, i32 0, i32 1
  %67 = getelementptr inbounds [20 x i8], [20 x i8]* %66, i64 0, i64 0
  %68 = load %struct.student*, %struct.student** %2, align 8
  %69 = getelementptr inbounds %struct.student, %struct.student* %68, i32 0, i32 2
  %70 = load i8, i8* %69, align 2
  %71 = sext i8 %70 to i32
  %72 = load %struct.student*, %struct.student** %2, align 8
  %73 = getelementptr inbounds %struct.student, %struct.student* %72, i32 0, i32 3
  %74 = load i32, i32* %73, align 8
  %75 = load %struct.student*, %struct.student** %2, align 8
  %76 = getelementptr inbounds %struct.student, %struct.student* %75, i32 0, i32 4
  %77 = load float, float* %76, align 4
  %78 = fpext float %77 to double
  %79 = load %struct.student*, %struct.student** %2, align 8
  %80 = getelementptr inbounds %struct.student, %struct.student* %79, i32 0, i32 5
  %81 = getelementptr inbounds [19 x i8], [19 x i8]* %80, i64 0, i64 0
  %82 = call i32 (i8*, ...) @printf(i8* getelementptr inbounds ([19 x i8], [19 x i8]* @.str.4, i64 0, i64 0), i8* %64, i8* %67, i32 %71, i32 %74, double %78, i8* %81)
  %83 = load %struct.student*, %struct.student** %2, align 8
  %84 = getelementptr inbounds %struct.student, %struct.student* %83, i32 0, i32 6
  %85 = load %struct.student*, %struct.student** %84, align 8
  store %struct.student* %85, %struct.student** %2, align 8
  br label %58

86:                                               ; preds = %58
  ret i32 0
}

; Function Attrs: nounwind
declare dso_local noalias i8* @malloc(i64) #1

declare dso_local i32 @__isoc99_scanf(i8*, ...) #2

; Function Attrs: nounwind readonly
declare dso_local i32 @strcmp(i8*, i8*) #3

declare dso_local i32 @printf(i8*, ...) #2


!llvm.module.flags = !{!0}
!llvm.ident = !{!1}

!0 = !{i32 1, !"wchar_size", i32 4}
!1 = !{!"clang version 10.0.0-4ubuntu1 "}
